; Function Attrs: nounwind uwtable
define i32 @NCONF_load_bio(ptr noundef %0, ptr noundef %1, ptr noundef %2) local_unnamed_addr #0 {
  %4 = icmp eq ptr %0, null
  br i1 %4, label %5, label %6

5:                                                ; preds = %3
  tail call void @ERR_new() #15
  tail call void @ERR_set_debug(ptr noundef nonnull @.str.1, i32 noundef 279, ptr noundef nonnull @__func__.NCONF_load_bio) #15
  tail call void (i32, i32, ptr, ...) @ERR_set_error(i32 noundef 14, i32 noundef 105, ptr noundef null) #15
  br label %11

6:                                                ; preds = %3
  %7 = load ptr, ptr %0, align 8, !tbaa !16
  %8 = getelementptr inbounds nuw i8, ptr %7, i64 40
  %9 = load ptr, ptr %8, align 8, !tbaa !17
  %10 = tail call i32 %9(ptr noundef nonnull %0, ptr noundef %1, ptr noundef %2) #15
  br label %11

11:                                               ; preds = %6, %5
  %.0 = phi i32 [ 0, %5 ], [ %10, %6 ]
  ret i32 %.0
}